target datalayout = "e-m:e-p270:32:32-p271:32:32-p272:64:64-i64:64-i128:128-f80:128-n8:16:32:64-S128"
target triple = "x86_64-pc-linux-gnu"

@hf_instance_id = internal global i32 0, align 4
@hf_grtt = internal global i32 0, align 4
@hf_backoff = internal global i32 0, align 4
@hf_gsize = internal global i32 0, align 4

; Function Attrs: nounwind null_pointer_is_valid sspstrong uwtable
define internal double @UnquantizeGSize(i8 noundef zeroext %0) #4 {
  %2 = alloca i8, align 1
  %3 = alloca i32, align 4
  %4 = alloca i32, align 4
  store i8 %0, ptr %2, align 1
  call void @llvm.lifetime.start.p0(i64 4, ptr %3) #8
  %5 = load i8, ptr %2, align 1
  %6 = zext i8 %5 to i32
  %7 = and i32 %6, 8
  %8 = icmp ne i32 %7, 0
  %9 = select i1 %8, i32 5, i32 1
  store i32 %9, ptr %3, align 4
  call void @llvm.lifetime.start.p0(i64 4, ptr %4) #8
  %10 = load i8, ptr %2, align 1
  %11 = zext i8 %10 to i32
  %12 = and i32 %11, 7
  store i32 %12, ptr %4, align 4
  %13 = load i32, ptr %4, align 4
  %14 = add i32 %13, 1
  store i32 %14, ptr %4, align 4
  %15 = load i32, ptr %3, align 4
  %16 = uitofp i32 %15 to double
  %17 = load i32, ptr %4, align 4
  %18 = uitofp i32 %17 to double
  %19 = call double @pow(double noundef 1.000000e+01, double noundef %18) #8
  %20 = fmul double %16, %19
  call void @llvm.lifetime.end.p0(i64 4, ptr %4) #8
  call void @llvm.lifetime.end.p0(i64 4, ptr %3) #8
  ret double %20
}

; Function Attrs: nounwind null_pointer_is_valid sspstrong uwtable
define internal double @UnquantizeRtt(i8 noundef zeroext %0) #4 {
  %2 = alloca i8, align 1
  store i8 %0, ptr %2, align 1
  %3 = load i8, ptr %2, align 1
  %4 = zext i8 %3 to i32
  %5 = icmp sle i32 %4, 31
  br i1 %5, label %6, label %12

6:                                                ; preds = %1
  %7 = load i8, ptr %2, align 1
  %8 = zext i8 %7 to i32
  %9 = add i32 %8, 1
  %10 = sitofp i32 %9 to double
  %11 = fmul double %10, 0x3EB0C6F7A0B5ED8D
  br label %20

12:                                               ; preds = %1
  %13 = load i8, ptr %2, align 1
  %14 = zext i8 %13 to i32
  %15 = sub i32 255, %14
  %16 = sitofp i32 %15 to double
  %17 = fdiv double %16, 1.300000e+01
  %18 = call double @exp(double noundef %17) #8
  %19 = fdiv double 1.000000e+03, %18
  br label %20

20:                                               ; preds = %12, %6
  %21 = phi double [ %11, %6 ], [ %19, %12 ]
  ret double %21
}

; Function Attrs: null_pointer_is_valid sspstrong uwtable
define internal i32 @dissect_grrtetc(ptr noundef %0, ptr noundef %1, i32 noundef %2) #0 {
  %4 = alloca ptr, align 8
  %5 = alloca ptr, align 8
  %6 = alloca i32, align 4
  %7 = alloca i8, align 1
  %8 = alloca double, align 8
  %9 = alloca double, align 8
  store ptr %0, ptr %4, align 8
  store ptr %1, ptr %5, align 8
  store i32 %2, ptr %6, align 4
  call void @llvm.lifetime.start.p0(i64 1, ptr %7) #8
  call void @llvm.lifetime.start.p0(i64 8, ptr %8) #8
  call void @llvm.lifetime.start.p0(i64 8, ptr %9) #8
  %10 = load ptr, ptr %4, align 8
  %11 = load i32, ptr @hf_instance_id, align 4
  %12 = load ptr, ptr %5, align 8
  %13 = load i32, ptr %6, align 4
  %14 = call ptr @proto_tree_add_item(ptr noundef %10, i32 noundef %11, ptr noundef %12, i32 noundef %13, i32 noundef 2, i32 noundef 0)
  %15 = load i32, ptr %6, align 4
  %16 = add i32 %15, 2
  store i32 %16, ptr %6, align 4
  %17 = load ptr, ptr %5, align 8
  %18 = load i32, ptr %6, align 4
  %19 = call zeroext i8 @tvb_get_uint8(ptr noundef %17, i32 noundef %18)
  %20 = call double @UnquantizeRtt(i8 noundef zeroext %19)
  store double %20, ptr %9, align 8
  %21 = load ptr, ptr %4, align 8
  %22 = load i32, ptr @hf_grtt, align 4
  %23 = load ptr, ptr %5, align 8
  %24 = load i32, ptr %6, align 4
  %25 = load double, ptr %9, align 8
  %26 = call ptr @proto_tree_add_double(ptr noundef %21, i32 noundef %22, ptr noundef %23, i32 noundef %24, i32 noundef 1, double noundef %25)
  %27 = load i32, ptr %6, align 4
  %28 = add i32 %27, 1
  store i32 %28, ptr %6, align 4
  %29 = load ptr, ptr %5, align 8
  %30 = load i32, ptr %6, align 4
  %31 = call zeroext i8 @tvb_get_uint8(ptr noundef %29, i32 noundef %30)
  %32 = zext i8 %31 to i32
  %33 = and i32 %32, 240
  %34 = ashr i32 %33, 4
  %35 = trunc i32 %34 to i8
  store i8 %35, ptr %7, align 1
  %36 = load ptr, ptr %5, align 8
  %37 = load i32, ptr %6, align 4
  %38 = call zeroext i8 @tvb_get_uint8(ptr noundef %36, i32 noundef %37)
  %39 = zext i8 %38 to i32
  %40 = and i32 %39, 15
  %41 = trunc i32 %40 to i8
  %42 = call double @UnquantizeGSize(i8 noundef zeroext %41)
  store double %42, ptr %8, align 8
  %43 = load ptr, ptr %4, align 8
  %44 = load i32, ptr @hf_backoff, align 4
  %45 = load ptr, ptr %5, align 8
  %46 = load i32, ptr %6, align 4
  %47 = load i8, ptr %7, align 1
  %48 = zext i8 %47 to i32
  %49 = call ptr @proto_tree_add_uint(ptr noundef %43, i32 noundef %44, ptr noundef %45, i32 noundef %46, i32 noundef 1, i32 noundef %48)
  %50 = load ptr, ptr %4, align 8
  %51 = load i32, ptr @hf_gsize, align 4
  %52 = load ptr, ptr %5, align 8
  %53 = load i32, ptr %6, align 4
  %54 = load double, ptr %8, align 8
  %55 = call ptr @proto_tree_add_double(ptr noundef %50, i32 noundef %51, ptr noundef %52, i32 noundef %53, i32 noundef 1, double noundef %54)
  %56 = load i32, ptr %6, align 4
  %57 = add i32 %56, 1
  store i32 %57, ptr %6, align 4
  %58 = load i32, ptr %6, align 4
  call void @llvm.lifetime.end.p0(i64 8, ptr %9) #8
  call void @llvm.lifetime.end.p0(i64 8, ptr %8) #8
  call void @llvm.lifetime.end.p0(i64 1, ptr %7) #8
  ret i32 %58
}