; Function Attrs: null_pointer_is_valid sspstrong uwtable
define internal fastcc void @dissect_grrtetc(ptr noundef %0, ptr noundef %1) unnamed_addr #0 {
  %3 = load i32, ptr @hf_instance_id, align 4
  %4 = tail call ptr @proto_tree_add_item(ptr noundef %0, i32 noundef %3, ptr noundef %1, i32 noundef 8, i32 noundef 2, i32 noundef 0)
  %5 = tail call zeroext i8 @tvb_get_uint8(ptr noundef %1, i32 noundef 10)
  %6 = zext i8 %5 to i32
  %7 = icmp ult i8 %5, 32
  br i1 %7, label %8, label %12

8:                                                ; preds = %2
  %9 = add nuw nsw i32 %6, 1
  %10 = uitofp nneg i32 %9 to double
  %11 = fmul double %10, 0x3EB0C6F7A0B5ED8D
  br label %UnquantizeRtt.exit

12:                                               ; preds = %2
  %13 = xor i32 %6, 255
  %14 = uitofp nneg i32 %13 to double
  %15 = fdiv double %14, 1.300000e+01
  %16 = tail call double @exp(double noundef %15) #8
  %17 = fdiv double 1.000000e+03, %16
  br label %UnquantizeRtt.exit

UnquantizeRtt.exit:                               ; preds = %8, %12
  %18 = phi double [ %11, %8 ], [ %17, %12 ]
  %19 = load i32, ptr @hf_grtt, align 4
  %20 = tail call ptr @proto_tree_add_double(ptr noundef %0, i32 noundef %19, ptr noundef %1, i32 noundef 10, i32 noundef 1, double noundef %18)
  %21 = tail call zeroext i8 @tvb_get_uint8(ptr noundef %1, i32 noundef 11)
  %22 = lshr i8 %21, 4
  %23 = tail call zeroext i8 @tvb_get_uint8(ptr noundef %1, i32 noundef 11)
  %24 = and i8 %23, 8
  %.not.i.not.not = icmp eq i8 %24, 0
  %25 = and i8 %23, 7
  %narrow.i = add nuw nsw i8 %25, 1
  %26 = select i1 %.not.i.not.not, double 1.000000e+00, double 5.000000e+00
  %27 = uitofp nneg i8 %narrow.i to double
  %28 = tail call double @pow(double noundef 1.000000e+01, double noundef %27) #8
  %29 = fmul double %28, %26
  %30 = load i32, ptr @hf_backoff, align 4
  %31 = zext nneg i8 %22 to i32
  %32 = tail call ptr @proto_tree_add_uint(ptr noundef %0, i32 noundef %30, ptr noundef %1, i32 noundef 11, i32 noundef 1, i32 noundef %31)
  %33 = load i32, ptr @hf_gsize, align 4
  %34 = tail call ptr @proto_tree_add_double(ptr noundef %0, i32 noundef %33, ptr noundef %1, i32 noundef 11, i32 noundef 1, double noundef %29)
  ret void
}